target datalayout = "e-m:e-p270:32:32-p271:32:32-p272:64:64-i64:64-i128:128-f80:128-n8:16:32:64-S128"
target triple = "x86_64-pc-linux-gnu"

%struct.OptionsContext = type { ptr, i64, i64, i32, ptr, %struct.SpecifierOptList, %struct.SpecifierOptList, %struct.SpecifierOptList, %struct.SpecifierOptList, %struct.SpecifierOptList, %struct.SpecifierOptList, %struct.SpecifierOptList, %struct.SpecifierOptList, i64, i32, i32, float, float, double, i32, i32, i32, i32, %struct.SpecifierOptList, %struct.SpecifierOptList, %struct.SpecifierOptList, %struct.SpecifierOptList, %struct.SpecifierOptList, %struct.SpecifierOptList, %struct.SpecifierOptList, ptr, i32, ptr, i32, i32, i64, i64, i64, float, float, float, i32, i32, i32, i32, i32, i32, ptr, %struct.SpecifierOptList, %struct.SpecifierOptList, %struct.SpecifierOptList, %struct.SpecifierOptList, %struct.SpecifierOptList, %struct.SpecifierOptList, %struct.SpecifierOptList, %struct.SpecifierOptList, %struct.SpecifierOptList, %struct.SpecifierOptList, %struct.SpecifierOptList, %struct.SpecifierOptList, %struct.SpecifierOptList, %struct.SpecifierOptList, %struct.SpecifierOptList, %struct.SpecifierOptList, %struct.SpecifierOptList, %struct.SpecifierOptList, %struct.SpecifierOptList, %struct.SpecifierOptList, %struct.SpecifierOptList, %struct.SpecifierOptList, %struct.SpecifierOptList, %struct.SpecifierOptList, %struct.SpecifierOptList, %struct.SpecifierOptList, %struct.SpecifierOptList, %struct.SpecifierOptList, %struct.SpecifierOptList, %struct.SpecifierOptList, %struct.SpecifierOptList, %struct.SpecifierOptList, %struct.SpecifierOptList, %struct.SpecifierOptList, %struct.SpecifierOptList, %struct.SpecifierOptList, %struct.SpecifierOptList, %struct.SpecifierOptList, %struct.SpecifierOptList, %struct.SpecifierOptList, %struct.SpecifierOptList, %struct.SpecifierOptList, %struct.SpecifierOptList, %struct.SpecifierOptList, %struct.SpecifierOptList, %struct.SpecifierOptList, %struct.SpecifierOptList, %struct.SpecifierOptList, %struct.SpecifierOptList }
%struct.SpecifierOptList = type { ptr, i32, ptr, i32 }
%struct.Muxer = type { %struct.OutputFile, [32 x i8], ptr, ptr, i32, ptr, i32, ptr, ptr, i64, i64, i32, ptr, ptr }
%struct.OutputFile = type { ptr, i32, ptr, ptr, i32, i64, i64, i32 }
%struct.AVDictionaryEntry = type { ptr, ptr }
%struct.SpecifierOpt = type { ptr, %struct.StreamSpecifier, %union.anon.0 }
%struct.StreamSpecifier = type { i32, i32, i64, i32, i8, i8, i32, ptr, ptr, ptr }
%union.anon.0 = type { ptr }
%struct.AVProgram = type { i32, i32, i32, ptr, i32, ptr, i32, i32, i32, i32, i64, i64, i64, i32 }

@.str.167 = private unnamed_addr constant [2 x i8] c"=\00", align 1
@.str.168 = private unnamed_addr constant [2 x i8] c":\00", align 1
@.str.174 = private unnamed_addr constant [3 x i8] c"st\00", align 1
@.str.215 = private unnamed_addr constant [40 x i8] c"Error parsing program specification %s\0A\00", align 1
@.str.216 = private unnamed_addr constant [12 x i8] c"program_num\00", align 1
@.str.217 = private unnamed_addr constant [6 x i8] c"title\00", align 1
@.str.218 = private unnamed_addr constant [25 x i8] c"Unknown program key %s.\0A\00", align 1

; Function Attrs: nounwind uwtable
define internal i32 @of_add_programs(ptr noundef %0, ptr noundef %1) #0 {
  %3 = alloca i32, align 4
  %4 = alloca ptr, align 8
  %5 = alloca ptr, align 8
  %6 = alloca ptr, align 8
  %7 = alloca i32, align 4
  %8 = alloca i32, align 4
  %9 = alloca ptr, align 8
  %10 = alloca ptr, align 8
  %11 = alloca ptr, align 8
  %12 = alloca i32, align 4
  %13 = alloca i32, align 4
  %14 = alloca i32, align 4
  store ptr %0, ptr %4, align 8, !tbaa !34
  store ptr %1, ptr %5, align 8, !tbaa !13
  call void @llvm.lifetime.start.p0(i64 8, ptr %6) #12
  %15 = load ptr, ptr %4, align 8, !tbaa !34
  %16 = getelementptr inbounds nuw %struct.Muxer, ptr %15, i32 0, i32 2
  %17 = load ptr, ptr %16, align 8, !tbaa !58
  store ptr %17, ptr %6, align 8, !tbaa !57
  call void @llvm.lifetime.start.p0(i64 4, ptr %7) #12
  store i32 0, ptr %7, align 4, !tbaa !4
  br label %18

18:                                               ; preds = %137, %2
  %19 = load i32, ptr %7, align 4, !tbaa !4
  %20 = load ptr, ptr %5, align 8, !tbaa !13
  %21 = getelementptr inbounds nuw %struct.OptionsContext, ptr %20, i32 0, i32 85
  %22 = getelementptr inbounds nuw %struct.SpecifierOptList, ptr %21, i32 0, i32 1
  %23 = load i32, ptr %22, align 8, !tbaa !201
  %24 = icmp slt i32 %19, %23
  br i1 %24, label %26, label %25

25:                                               ; preds = %18
  store i32 2, ptr %8, align 4
  br label %140

26:                                               ; preds = %18
  call void @llvm.lifetime.start.p0(i64 8, ptr %9) #12
  store ptr null, ptr %9, align 8, !tbaa !114
  call void @llvm.lifetime.start.p0(i64 8, ptr %10) #12
  call void @llvm.lifetime.start.p0(i64 8, ptr %11) #12
  call void @llvm.lifetime.start.p0(i64 4, ptr %12) #12
  call void @llvm.lifetime.start.p0(i64 4, ptr %13) #12
  %27 = load i32, ptr %7, align 4, !tbaa !4
  %28 = add nsw i32 %27, 1
  store i32 %28, ptr %13, align 4, !tbaa !4
  %29 = load ptr, ptr %5, align 8, !tbaa !13
  %30 = getelementptr inbounds nuw %struct.OptionsContext, ptr %29, i32 0, i32 85
  %31 = getelementptr inbounds nuw %struct.SpecifierOptList, ptr %30, i32 0, i32 0
  %32 = load ptr, ptr %31, align 8, !tbaa !202
  %33 = load i32, ptr %7, align 4, !tbaa !4
  %34 = sext i32 %33 to i64
  %35 = getelementptr inbounds %struct.SpecifierOpt, ptr %32, i64 %34
  %36 = getelementptr inbounds nuw %struct.SpecifierOpt, ptr %35, i32 0, i32 2
  %37 = load ptr, ptr %36, align 8, !tbaa !175
  %38 = call i32 @av_dict_parse_string(ptr noundef %9, ptr noundef %37, ptr noundef @.str.167, ptr noundef @.str.168, i32 noundef 64)
  store i32 %38, ptr %12, align 4, !tbaa !4
  %39 = load i32, ptr %12, align 4, !tbaa !4
  %40 = icmp slt i32 %39, 0
  br i1 %40, label %41, label %53

41:                                               ; preds = %26
  %42 = load ptr, ptr %4, align 8, !tbaa !34
  %43 = load ptr, ptr %5, align 8, !tbaa !13
  %44 = getelementptr inbounds nuw %struct.OptionsContext, ptr %43, i32 0, i32 85
  %45 = getelementptr inbounds nuw %struct.SpecifierOptList, ptr %44, i32 0, i32 0
  %46 = load ptr, ptr %45, align 8, !tbaa !202
  %47 = load i32, ptr %7, align 4, !tbaa !4
  %48 = sext i32 %47 to i64
  %49 = getelementptr inbounds %struct.SpecifierOpt, ptr %46, i64 %48
  %50 = getelementptr inbounds nuw %struct.SpecifierOpt, ptr %49, i32 0, i32 2
  %51 = load ptr, ptr %50, align 8, !tbaa !175
  call void (ptr, i32, ptr, ...) @av_log(ptr noundef %42, i32 noundef 16, ptr noundef @.str.215, ptr noundef %51)
  %52 = load i32, ptr %12, align 4, !tbaa !4
  store i32 %52, ptr %3, align 4
  store i32 1, ptr %8, align 4
  br label %134

53:                                               ; preds = %26
  %54 = load ptr, ptr %9, align 8, !tbaa !114
  %55 = call ptr @av_dict_get(ptr noundef %54, ptr noundef @.str.216, ptr noundef null, i32 noundef 0)
  store ptr %55, ptr %10, align 8, !tbaa !115
  %56 = load ptr, ptr %10, align 8, !tbaa !115
  %57 = icmp ne ptr %56, null
  br i1 %57, label %58, label %68

58:                                               ; preds = %53
  %59 = load ptr, ptr %10, align 8, !tbaa !115
  %60 = getelementptr inbounds nuw %struct.AVDictionaryEntry, ptr %59, i32 0, i32 1
  %61 = load ptr, ptr %60, align 8, !tbaa !119
  %62 = call i64 @strtol(ptr noundef %61, ptr noundef null, i32 noundef 0) #12
  %63 = trunc i64 %62 to i32
  store i32 %63, ptr %13, align 4, !tbaa !4
  %64 = load ptr, ptr %10, align 8, !tbaa !115
  %65 = getelementptr inbounds nuw %struct.AVDictionaryEntry, ptr %64, i32 0, i32 0
  %66 = load ptr, ptr %65, align 8, !tbaa !203
  %67 = call i32 @av_dict_set(ptr noundef %9, ptr noundef %66, ptr noundef null, i32 noundef 0)
  br label %68

68:                                               ; preds = %58, %53
  %69 = load ptr, ptr %6, align 8, !tbaa !57
  %70 = load i32, ptr %13, align 4, !tbaa !4
  %71 = call ptr @av_new_program(ptr noundef %69, i32 noundef %70)
  store ptr %71, ptr %11, align 8, !tbaa !204
  %72 = load ptr, ptr %11, align 8, !tbaa !204
  %73 = icmp ne ptr %72, null
  br i1 %73, label %75, label %74

74:                                               ; preds = %68
  store i32 -12, ptr %12, align 4, !tbaa !4
  br label %128

75:                                               ; preds = %68
  %76 = load ptr, ptr %9, align 8, !tbaa !114
  %77 = call ptr @av_dict_get(ptr noundef %76, ptr noundef @.str.217, ptr noundef null, i32 noundef 0)
  store ptr %77, ptr %10, align 8, !tbaa !115
  %78 = load ptr, ptr %10, align 8, !tbaa !115
  %79 = icmp ne ptr %78, null
  br i1 %79, label %80, label %94

80:                                               ; preds = %75
  %81 = load ptr, ptr %11, align 8, !tbaa !204
  %82 = getelementptr inbounds nuw %struct.AVProgram, ptr %81, i32 0, i32 5
  %83 = load ptr, ptr %10, align 8, !tbaa !115
  %84 = getelementptr inbounds nuw %struct.AVDictionaryEntry, ptr %83, i32 0, i32 0
  %85 = load ptr, ptr %84, align 8, !tbaa !203
  %86 = load ptr, ptr %10, align 8, !tbaa !115
  %87 = getelementptr inbounds nuw %struct.AVDictionaryEntry, ptr %86, i32 0, i32 1
  %88 = load ptr, ptr %87, align 8, !tbaa !119
  %89 = call i32 @av_dict_set(ptr noundef %82, ptr noundef %85, ptr noundef %88, i32 noundef 0)
  %90 = load ptr, ptr %10, align 8, !tbaa !115
  %91 = getelementptr inbounds nuw %struct.AVDictionaryEntry, ptr %90, i32 0, i32 0
  %92 = load ptr, ptr %91, align 8, !tbaa !203
  %93 = call i32 @av_dict_set(ptr noundef %9, ptr noundef %92, ptr noundef null, i32 noundef 0)
  br label %94

94:                                               ; preds = %80, %75
  store ptr null, ptr %10, align 8, !tbaa !115
  br label %95

95:                                               ; preds = %100, %94
  %96 = load ptr, ptr %9, align 8, !tbaa !114
  %97 = load ptr, ptr %10, align 8, !tbaa !115
  %98 = call ptr @av_dict_get(ptr noundef %96, ptr noundef @.str.174, ptr noundef %97, i32 noundef 0)
  store ptr %98, ptr %10, align 8, !tbaa !115
  %99 = icmp ne ptr %98, null
  br i1 %99, label %100, label %109

100:                                              ; preds = %95
  call void @llvm.lifetime.start.p0(i64 4, ptr %14) #12
  %101 = load ptr, ptr %10, align 8, !tbaa !115
  %102 = getelementptr inbounds nuw %struct.AVDictionaryEntry, ptr %101, i32 0, i32 1
  %103 = load ptr, ptr %102, align 8, !tbaa !119
  %104 = call i64 @strtol(ptr noundef %103, ptr noundef null, i32 noundef 0) #12
  %105 = trunc i64 %104 to i32
  store i32 %105, ptr %14, align 4, !tbaa !4
  %106 = load ptr, ptr %6, align 8, !tbaa !57
  %107 = load i32, ptr %13, align 4, !tbaa !4
  %108 = load i32, ptr %14, align 4, !tbaa !4
  call void @av_program_add_stream_index(ptr noundef %106, i32 noundef %107, i32 noundef %108)
  call void @llvm.lifetime.end.p0(i64 4, ptr %14) #12
  br label %95, !llvm.loop !206

109:                                              ; preds = %95
  store ptr null, ptr %10, align 8, !tbaa !115
  br label %110

110:                                              ; preds = %121, %109
  %111 = load ptr, ptr %9, align 8, !tbaa !114
  %112 = load ptr, ptr %10, align 8, !tbaa !115
  %113 = call ptr @av_dict_iterate(ptr noundef %111, ptr noundef %112)
  store ptr %113, ptr %10, align 8, !tbaa !115
  %114 = icmp ne ptr %113, null
  br i1 %114, label %115, label %127

115:                                              ; preds = %110
  %116 = load ptr, ptr %10, align 8, !tbaa !115
  %117 = getelementptr inbounds nuw %struct.AVDictionaryEntry, ptr %116, i32 0, i32 0
  %118 = load ptr, ptr %117, align 8, !tbaa !203
  %119 = call i32 @strcmp(ptr noundef %118, ptr noundef @.str.174) #13
  %120 = icmp ne i32 %119, 0
  br i1 %120, label %122, label %121

121:                                              ; preds = %115
  br label %110, !llvm.loop !207

122:                                              ; preds = %115
  %123 = load ptr, ptr %4, align 8, !tbaa !34
  %124 = load ptr, ptr %10, align 8, !tbaa !115
  %125 = getelementptr inbounds nuw %struct.AVDictionaryEntry, ptr %124, i32 0, i32 0
  %126 = load ptr, ptr %125, align 8, !tbaa !203
  call void (ptr, i32, ptr, ...) @av_log(ptr noundef %123, i32 noundef 8, ptr noundef @.str.218, ptr noundef %126)
  store i32 -22, ptr %12, align 4, !tbaa !4
  br label %128

127:                                              ; preds = %110
  br label %128

128:                                              ; preds = %127, %122, %74
  call void @av_dict_free(ptr noundef %9)
  %129 = load i32, ptr %12, align 4, !tbaa !4
  %130 = icmp slt i32 %129, 0
  br i1 %130, label %131, label %133

131:                                              ; preds = %128
  %132 = load i32, ptr %12, align 4, !tbaa !4
  store i32 %132, ptr %3, align 4
  store i32 1, ptr %8, align 4
  br label %134

133:                                              ; preds = %128
  store i32 0, ptr %8, align 4
  br label %134

134:                                              ; preds = %133, %131, %41
  call void @llvm.lifetime.end.p0(i64 4, ptr %13) #12
  call void @llvm.lifetime.end.p0(i64 4, ptr %12) #12
  call void @llvm.lifetime.end.p0(i64 8, ptr %11) #12
  call void @llvm.lifetime.end.p0(i64 8, ptr %10) #12
  call void @llvm.lifetime.end.p0(i64 8, ptr %9) #12
  %135 = load i32, ptr %8, align 4
  switch i32 %135, label %140 [
    i32 0, label %136
  ]

136:                                              ; preds = %134
  br label %137

137:                                              ; preds = %136
  %138 = load i32, ptr %7, align 4, !tbaa !4
  %139 = add nsw i32 %138, 1
  store i32 %139, ptr %7, align 4, !tbaa !4
  br label %18, !llvm.loop !208

140:                                              ; preds = %134, %25
  call void @llvm.lifetime.end.p0(i64 4, ptr %7) #12
  %141 = load i32, ptr %8, align 4
  switch i32 %141, label %143 [
    i32 2, label %142
  ]

142:                                              ; preds = %140
  store i32 0, ptr %3, align 4
  store i32 1, ptr %8, align 4
  br label %143

143:                                              ; preds = %142, %140
  call void @llvm.lifetime.end.p0(i64 8, ptr %6) #12
  %144 = load i32, ptr %3, align 4
  ret i32 %144
}