; Function Attrs: nounwind uwtable
define internal fastcc range(i32 -2147483648, 1) i32 @of_add_programs(ptr noundef nonnull %0, ptr noundef readonly captures(none) %1) unnamed_addr #0 {
  %3 = alloca ptr, align 8
  %4 = getelementptr inbounds nuw i8, ptr %0, i64 96
  %5 = load ptr, ptr %4, align 8, !tbaa !51
  %6 = getelementptr inbounds nuw i8, ptr %1, i64 1856
  %7 = getelementptr inbounds nuw i8, ptr %1, i64 1864
  %8 = load i32, ptr %7, align 8, !tbaa !295
  %.not5685 = icmp sgt i32 %8, 0
  br i1 %.not5685, label %.lr.ph87, label %.loopexit59

.lr.ph87:                                         ; preds = %2, %.loopexit
  %indvars.iv86 = phi i64 [ %indvars.iv.next, %.loopexit ], [ 0, %2 ]
  call void @llvm.lifetime.start.p0(i64 8, ptr nonnull %3) #16
  store ptr null, ptr %3, align 8, !tbaa !205
  %indvars.iv.next = add nuw nsw i64 %indvars.iv86, 1
  %9 = load ptr, ptr %6, align 8, !tbaa !296
  %10 = getelementptr inbounds nuw %struct.SpecifierOpt, ptr %9, i64 %indvars.iv86, i32 2
  %11 = load ptr, ptr %10, align 8, !tbaa !159
  %12 = call i32 @av_dict_parse_string(ptr noundef nonnull %3, ptr noundef %11, ptr noundef nonnull @.str.167, ptr noundef nonnull @.str.168, i32 noundef 64) #16
  %13 = icmp slt i32 %12, 0
  br i1 %13, label %.thread, label %17

.thread:                                          ; preds = %.lr.ph87
  %14 = load ptr, ptr %6, align 8, !tbaa !296
  %15 = getelementptr inbounds nuw %struct.SpecifierOpt, ptr %14, i64 %indvars.iv86, i32 2
  %16 = load ptr, ptr %15, align 8, !tbaa !159
  call void (ptr, i32, ptr, ...) @av_log(ptr noundef nonnull %0, i32 noundef 16, ptr noundef nonnull @.str.215, ptr noundef %16) #16
  br label %.loopexit59.sink.split

17:                                               ; preds = %.lr.ph87
  %18 = load ptr, ptr %3, align 8, !tbaa !205
  %19 = call ptr @av_dict_get(ptr noundef %18, ptr noundef nonnull @.str.216, ptr noundef null, i32 noundef 0) #16
  %.not = icmp eq ptr %19, null
  br i1 %.not, label %26, label %20

20:                                               ; preds = %17
  %21 = getelementptr inbounds nuw i8, ptr %19, i64 8
  %22 = load ptr, ptr %21, align 8, !tbaa !73
  %23 = call i64 @strtol(ptr noundef captures(none) %22, ptr noundef null, i32 noundef 0) #16
  %24 = load ptr, ptr %19, align 8, !tbaa !289
  %25 = call i32 @av_dict_set(ptr noundef nonnull %3, ptr noundef %24, ptr noundef null, i32 noundef 0) #16
  br label %26

26:                                               ; preds = %20, %17
  %.037.in = phi i64 [ %23, %20 ], [ %indvars.iv.next, %17 ]
  %.037 = trunc i64 %.037.in to i32
  %27 = call ptr @av_new_program(ptr noundef %5, i32 noundef %.037) #16
  %.not51 = icmp eq ptr %27, null
  br i1 %.not51, label %.loopexit.thread, label %28

28:                                               ; preds = %26
  %29 = load ptr, ptr %3, align 8, !tbaa !205
  %30 = call ptr @av_dict_get(ptr noundef %29, ptr noundef nonnull @.str.217, ptr noundef null, i32 noundef 0) #16
  %.not52 = icmp eq ptr %30, null
  br i1 %.not52, label %39, label %31

31:                                               ; preds = %28
  %32 = getelementptr inbounds nuw i8, ptr %27, i64 32
  %33 = load ptr, ptr %30, align 8, !tbaa !289
  %34 = getelementptr inbounds nuw i8, ptr %30, i64 8
  %35 = load ptr, ptr %34, align 8, !tbaa !73
  %36 = call i32 @av_dict_set(ptr noundef nonnull %32, ptr noundef %33, ptr noundef %35, i32 noundef 0) #16
  %37 = load ptr, ptr %30, align 8, !tbaa !289
  %38 = call i32 @av_dict_set(ptr noundef nonnull %3, ptr noundef %37, ptr noundef null, i32 noundef 0) #16
  br label %39

39:                                               ; preds = %31, %28
  %40 = load ptr, ptr %3, align 8, !tbaa !205
  %41 = call ptr @av_dict_get(ptr noundef %40, ptr noundef nonnull @.str.174, ptr noundef null, i32 noundef 0) #16
  %.not5364 = icmp eq ptr %41, null
  br i1 %.not5364, label %.preheader.preheader, label %.lr.ph

.lr.ph:                                           ; preds = %39, %.lr.ph
  %42 = phi ptr [ %48, %.lr.ph ], [ %41, %39 ]
  %43 = getelementptr inbounds nuw i8, ptr %42, i64 8
  %44 = load ptr, ptr %43, align 8, !tbaa !73
  %45 = call i64 @strtol(ptr noundef captures(none) %44, ptr noundef null, i32 noundef 0) #16
  %46 = trunc i64 %45 to i32
  call void @av_program_add_stream_index(ptr noundef %5, i32 noundef %.037, i32 noundef %46) #16
  %47 = load ptr, ptr %3, align 8, !tbaa !205
  %48 = call ptr @av_dict_get(ptr noundef %47, ptr noundef nonnull @.str.174, ptr noundef nonnull %42, i32 noundef 0) #16
  %.not53 = icmp eq ptr %48, null
  br i1 %.not53, label %.preheader.preheader, label %.lr.ph, !llvm.loop !297

.preheader.preheader:                             ; preds = %.lr.ph, %39
  br label %.preheader

.preheader:                                       ; preds = %.preheader.preheader, %.tail
  %.141 = phi ptr [ %50, %.tail ], [ null, %.preheader.preheader ]
  %49 = load ptr, ptr %3, align 8, !tbaa !205
  %50 = call ptr @av_dict_iterate(ptr noundef %49, ptr noundef %.141) #16
  %.not54 = icmp eq ptr %50, null
  br i1 %.not54, label %.loopexit, label %sub_0

sub_0:                                            ; preds = %.preheader
  %51 = load ptr, ptr %50, align 8, !tbaa !289
  %52 = load i8, ptr %51, align 1
  %.not65 = icmp eq i8 %52, 115
  br i1 %.not65, label %sub_1, label %.tail.thread

sub_1:                                            ; preds = %sub_0
  %53 = getelementptr inbounds nuw i8, ptr %51, i64 1
  %54 = load i8, ptr %53, align 1
  %.not66 = icmp eq i8 %54, 116
  br i1 %.not66, label %.tail, label %.tail.thread

.tail:                                            ; preds = %sub_1
  %55 = getelementptr inbounds nuw i8, ptr %51, i64 2
  %56 = load i8, ptr %55, align 1
  %57 = icmp eq i8 %56, 0
  br i1 %57, label %.preheader, label %.tail.thread, !llvm.loop !298

.tail.thread:                                     ; preds = %sub_1, %sub_0, %.tail
  call void (ptr, i32, ptr, ...) @av_log(ptr noundef nonnull %0, i32 noundef 8, ptr noundef nonnull @.str.218, ptr noundef nonnull %51) #16
  br label %.loopexit.thread

.loopexit.thread:                                 ; preds = %26, %.tail.thread
  %.038.ph = phi i32 [ -22, %.tail.thread ], [ -12, %26 ]
  call void @av_dict_free(ptr noundef nonnull %3) #16
  br label %.loopexit59.sink.split

.loopexit:                                        ; preds = %.preheader
  call void @av_dict_free(ptr noundef nonnull %3) #16
  call void @llvm.lifetime.end.p0(i64 8, ptr nonnull %3) #16
  %58 = load i32, ptr %7, align 8, !tbaa !295
  %59 = sext i32 %58 to i64
  %.not56 = icmp slt i64 %indvars.iv.next, %59
  br i1 %.not56, label %.lr.ph87, label %.loopexit59, !llvm.loop !299

.loopexit59.sink.split:                           ; preds = %.thread, %.loopexit.thread
  %spec.select.ph = phi i32 [ %.038.ph, %.loopexit.thread ], [ %12, %.thread ]
  call void @llvm.lifetime.end.p0(i64 8, ptr nonnull %3) #16
  br label %.loopexit59

.loopexit59:                                      ; preds = %.loopexit, %2, %.loopexit59.sink.split
  %spec.select = phi i32 [ %spec.select.ph, %.loopexit59.sink.split ], [ 0, %2 ], [ 0, %.loopexit ]
  ret i32 %spec.select
}